; Function Attrs: mustprogress nofree nounwind willreturn memory(read, inaccessiblemem: none) uwtable
define dso_local noundef zeroext i1 @_ZNK5clang17OffloadTargetInfo11hasHostKindEv(ptr nocapture noundef nonnull readonly align 8 dereferenceable(96) %0) local_unnamed_addr #5 align 2 {
  %.sroa.2.0..sroa_idx = getelementptr inbounds i8, ptr %0, i64 8
  %.sroa.2.0.copyload = load i64, ptr %.sroa.2.0..sroa_idx, align 8
  %.not.i = icmp eq i64 %.sroa.2.0.copyload, 4
  br i1 %.not.i, label %2, label %_ZN4llvmeqENS_9StringRefES0_.exit

2:                                                ; preds = %1
  %.sroa.0.0.copyload = load ptr, ptr %0, align 8
  %bcmp.i = tail call i32 @bcmp(ptr noundef nonnull dereferenceable(4) %.sroa.0.0.copyload, ptr noundef nonnull dereferenceable(4) @.str.3, i64 4)
  %3 = icmp eq i32 %bcmp.i, 0
  br label %_ZN4llvmeqENS_9StringRefES0_.exit

_ZN4llvmeqENS_9StringRefES0_.exit:                ; preds = %1, %2
  %.0.i = phi i1 [ %3, %2 ], [ false, %1 ]
  ret i1 %.0.i
}